Certificate:
    Data:
        Version: 3 (0x2)
        Serial Number:
            d3:4a:f4:ef:87:65:d7:71
        Signature Algorithm: sha1WithRSAEncryption
        Issuer: C=US, ST=New York, L=Brooklyn, O=ucspi-ssl research laboratory, CN=ucspi-ssl research ca
        Validity
            Not Before: Sep 27 19:03:08 2012 GMT
            Not After : Sep 25 19:03:08 2022 GMT
        Subject: C=US, ST=New York, L=Brooklyn, O=ucspi-ssl research laboratory, CN=127.0.0.1
        Subject Public Key Info:
            Public Key Algorithm: rsaEncryption
            RSA Public Key: (1024 bit)
                Modulus (1024 bit):
                    00:b7:de:65:ba:09:38:d9:c4:72:52:ae:ae:f4:4c:
                    be:29:f0:48:60:76:c7:42:1d:1e:ae:e0:8e:8c:29:
                    f0:d5:b5:c8:13:a8:22:80:e6:8f:2d:ba:62:45:4b:
                    03:f1:63:65:3a:59:7a:9d:9b:2e:38:7e:e1:6d:2f:
                    10:b8:14:5a:a3:15:8c:00:6a:50:70:46:3f:93:cc:
                    d2:6f:e7:c1:a7:71:5f:47:80:e2:ab:bc:08:b4:c8:
                    62:fc:25:40:04:36:53:b9:a3:27:2c:f7:c5:cd:c6:
                    c7:85:7d:fb:b3:6e:c7:64:29:36:f5:2b:93:06:d7:
                    83:22:ed:28:e8:9d:e0:86:17
                Exponent: 65537 (0x10001)
        X509v3 extensions:
            X509v3 Basic Constraints: 
                CA:FALSE
            X509v3 Key Usage: 
                Digital Signature, Key Encipherment
            X509v3 Extended Key Usage: 
                TLS Web Server Authentication
            X509v3 Subject Alternative Name: 
                IP Address:127.0.0.1, DNS:localhost
            X509v3 Authority Key Identifier: 
                DirName:/C=US/ST=New York/L=Brooklyn/O=ucspi-ssl research laboratory/CN=ucspi-ssl research ca
                serial:F1:8A:16:BB:FA:4F:13:E2

    Signature Algorithm: sha1WithRSAEncryption
        70:b7:59:b9:c9:d1:34:e8:33:e4:1e:c5:14:40:c0:9b:b4:45:
        a0:a6:3d:44:94:73:24:ca:da:50:2c:90:76:06:99:33:fc:83:
        98:8c:4b:53:1d:38:93:fd:c7:99:5e:d3:67:ea:56:86:92:a5:
        ce:eb:00:f6:27:fd:e0:f5:62:a2:71:0b:10:71:7f:59:d8:8b:
        de:ba:3d:69:83:a7:43:d9:c2:13:c3:ff:69:8d:b9:f5:1c:5b:
        29:f5:5f:b4:00:4f:b3:38:a8:ae:d1:ac:fd:34:ab:ae:b4:16:
        95:61:c3:ac:87:e3:e1:1e:1e:33:93:a8:99:b3:85:fd:f2:33:
        44:53:32:43:f8:13:05:16:92:80:a6:8d:7c:32:62:e0:fe:02:
        66:0c:9c:9a:66:2f:03:58:03:83:f9:0d:d5:71:6d:0a:8d:4b:
        84:df:a8:7e:a2:51:d3:d3:f8:06:73:b6:18:54:ce:4c:0f:c3:
        5b:4a:87:1c:92:06:0b:07:54:9d:b5:2e:aa:4a:79:eb:64:fd:
        26:49:73:b8:d2:c4:9c:63:c6:83:c9:8c:4f:f3:12:9f:ff:bc:
        36:63:c7:1a:ca:c2:46:e1:a5:d0:46:98:e8:fe:c4:0f:98:e0:
        1e:59:f5:5f:cf:de:15:8e:83:e8:40:f1:39:b7:49:2b:8f:27:
        c1:6f:f0:f9
-----BEGIN CERTIFICATE-----
MIID0DCCArigAwIBAgIJANNK9O+HZddxMA0GCSqGSIb3DQEBBQUAMHsxCzAJBgNV
BAYTAlVTMREwDwYDVQQIEwhOZXcgWW9yazERMA8GA1UEBxMIQnJvb2tseW4xJjAk
BgNVBAoTHXVjc3BpLXNzbCByZXNlYXJjaCBsYWJvcmF0b3J5MR4wHAYDVQQDExV1
Y3NwaS1zc2wgcmVzZWFyY2ggY2EwHhcNMTIwOTI3MTkwMzA4WhcNMjIwOTI1MTkw
MzA4WjBvMQswCQYDVQQGEwJVUzERMA8GA1UECBMITmV3IFlvcmsxETAPBgNVBAcT
CEJyb29rbHluMSYwJAYDVQQKEx11Y3NwaS1zc2wgcmVzZWFyY2ggbGFib3JhdG9y
eTESMBAGA1UEAxMJMTI3LjAuMC4xMIGfMA0GCSqGSIb3DQEBAQUAA4GNADCBiQKB
gQC33mW6CTjZxHJSrq70TL4p8EhgdsdCHR6u4I6MKfDVtcgTqCKA5o8tumJFSwPx
Y2U6WXqdmy44fuFtLxC4FFqjFYwAalBwRj+TzNJv58GncV9HgOKrvAi0yGL8JUAE
NlO5oycs98XNxseFffuzbsdkKTb1K5MG14Mi7SjoneCGFwIDAQABo4HmMIHjMAkG
A1UdEwQCMAAwCwYDVR0PBAQDAgWgMBMGA1UdJQQMMAoGCCsGAQUFBwMBMBoGA1Ud
EQQTMBGHBH8AAAGCCWxvY2FsaG9zdDCBlwYDVR0jBIGPMIGMoX+kfTB7MQswCQYD
VQQGEwJVUzERMA8GA1UECBMITmV3IFlvcmsxETAPBgNVBAcTCEJyb29rbHluMSYw
JAYDVQQKEx11Y3NwaS1zc2wgcmVzZWFyY2ggbGFib3JhdG9yeTEeMBwGA1UEAxMV
dWNzcGktc3NsIHJlc2VhcmNoIGNhggkA8YoWu/pPE+IwDQYJKoZIhvcNAQEFBQAD
ggEBAHC3WbnJ0TToM+QexRRAwJu0RaCmPUSUcyTK2lAskHYGmTP8g5iMS1MdOJP9
x5le02fqVoaSpc7rAPYn/eD1YqJxCxBxf1nYi966PWmDp0PZwhPD/2mNufUcWyn1
X7QAT7M4qK7RrP00q660FpVhw6yH4+EeHjOTqJmzhf3yM0RTMkP4EwUWkoCmjXwy
YuD+AmYMnJpmLwNYA4P5DdVxbQqNS4TfqH6iUdPT+AZzthhUzkwPw1tKhxySBgsH
VJ21LqpKeetk/SZJc7jSxJxjxoPJjE/zEp//vDZjxxrKwkbhpdBGmOj+xA+Y4B5Z
9V/P3hWOg+hA8Tm3SSuPJ8Fv8Pk=
-----END CERTIFICATE-----
