Certificate:
    Data:
        Version: 3 (0x2)
        Serial Number:
            d3:4a:f4:ef:87:65:d7:73
        Signature Algorithm: sha1WithRSAEncryption
        Issuer: C=US, ST=New York, L=Brooklyn, O=ucspi-ssl research laboratory, CN=ucspi-ssl research ca
        Validity
            Not Before: Sep 27 19:03:54 2012 GMT
            Not After : Sep 25 19:03:54 2022 GMT
        Subject: C=US, ST=New York, L=Brooklyn, O=ucspi-ssl research laboratory, CN=::1
        Subject Public Key Info:
            Public Key Algorithm: rsaEncryption
            RSA Public Key: (1024 bit)
                Modulus (1024 bit):
                    00:cc:f7:36:a1:e8:68:d6:9a:71:df:f9:d1:40:70:
                    b7:2a:7b:ee:24:ad:b2:e7:9e:83:fd:cd:7e:b0:5e:
                    6d:ba:d3:11:84:9f:34:3b:44:23:c9:22:c1:ce:84:
                    a6:bf:41:82:50:0d:89:78:dd:e3:c8:54:55:01:f9:
                    f8:9d:87:67:36:8e:a1:07:e8:39:ec:fa:9d:46:4c:
                    e7:ba:45:ef:fa:16:c9:1f:2a:4d:86:5d:ff:87:66:
                    4c:1f:95:03:72:5d:3b:e8:04:46:94:70:c1:0e:72:
                    2d:8b:a9:f8:fc:a0:f2:66:94:14:44:0a:a4:74:38:
                    f7:dd:f6:19:ca:86:ed:3e:e3
                Exponent: 65537 (0x10001)
        X509v3 extensions:
            X509v3 Basic Constraints: 
                CA:FALSE
            X509v3 Key Usage: 
                Digital Signature, Key Encipherment
            X509v3 Extended Key Usage: 
                TLS Web Server Authentication
            X509v3 Subject Alternative Name: 
                IP Address:0:0:0:0:0:0:0:1, DNS:localhost
            X509v3 Authority Key Identifier: 
                DirName:/C=US/ST=New York/L=Brooklyn/O=ucspi-ssl research laboratory/CN=ucspi-ssl research ca
                serial:F1:8A:16:BB:FA:4F:13:E2

    Signature Algorithm: sha1WithRSAEncryption
        09:dc:df:4c:d6:26:3b:0c:6a:11:89:17:1c:f4:8c:56:54:97:
        1c:a5:d9:1f:42:3a:28:9e:96:a3:d3:ab:6f:36:d0:8b:40:7d:
        f1:e3:eb:90:8c:89:ce:17:35:9e:9a:01:c8:f4:be:d5:e2:75:
        5c:04:aa:ca:5c:58:4c:c8:c6:cb:dd:55:84:78:43:2c:e3:69:
        6f:95:2c:27:fb:64:25:2b:2e:2a:6f:f1:e0:5a:b9:f3:aa:2b:
        ad:24:da:64:1f:7b:e2:19:04:ca:b2:3e:85:20:9f:e3:ad:03:
        f3:07:47:8f:a1:d1:9e:5e:55:00:b2:0b:dd:64:8c:bb:1d:f7:
        05:e7:6f:1c:a8:1a:8c:23:76:00:05:15:06:10:94:5c:90:03:
        e2:3f:b2:96:9f:91:fe:c4:8e:33:4c:a5:f5:91:43:29:07:38:
        81:94:4d:ce:e5:8a:a0:da:67:08:a3:91:25:2e:78:28:ce:71:
        52:52:98:71:4d:b8:b6:92:35:4a:e3:cd:19:22:31:86:de:d6:
        c3:e8:da:ce:ca:40:fd:07:62:ba:08:1c:a4:0d:f4:53:22:5b:
        b6:5f:8b:b7:22:17:96:6a:b7:ac:3c:f8:79:ec:e9:ea:b3:f6:
        a4:4f:36:a3:c6:36:0c:08:50:7e:53:81:a3:ca:43:5a:70:46:
        85:d9:a6:4f
-----BEGIN CERTIFICATE-----
MIID1jCCAr6gAwIBAgIJANNK9O+HZddzMA0GCSqGSIb3DQEBBQUAMHsxCzAJBgNV
BAYTAlVTMREwDwYDVQQIEwhOZXcgWW9yazERMA8GA1UEBxMIQnJvb2tseW4xJjAk
BgNVBAoTHXVjc3BpLXNzbCByZXNlYXJjaCBsYWJvcmF0b3J5MR4wHAYDVQQDExV1
Y3NwaS1zc2wgcmVzZWFyY2ggY2EwHhcNMTIwOTI3MTkwMzU0WhcNMjIwOTI1MTkw
MzU0WjBpMQswCQYDVQQGEwJVUzERMA8GA1UECBMITmV3IFlvcmsxETAPBgNVBAcT
CEJyb29rbHluMSYwJAYDVQQKEx11Y3NwaS1zc2wgcmVzZWFyY2ggbGFib3JhdG9y
eTEMMAoGA1UEAxMDOjoxMIGfMA0GCSqGSIb3DQEBAQUAA4GNADCBiQKBgQDM9zah
6GjWmnHf+dFAcLcqe+4krbLnnoP9zX6wXm260xGEnzQ7RCPJIsHOhKa/QYJQDYl4
3ePIVFUB+fidh2c2jqEH6Dns+p1GTOe6Re/6FskfKk2GXf+HZkwflQNyXTvoBEaU
cMEOci2Lqfj8oPJmlBRECqR0OPfd9hnKhu0+4wIDAQABo4HyMIHvMAkGA1UdEwQC
MAAwCwYDVR0PBAQDAgWgMBMGA1UdJQQMMAoGCCsGAQUFBwMBMCYGA1UdEQQfMB2H
EAAAAAAAAAAAAAAAAAAAAAGCCWxvY2FsaG9zdDCBlwYDVR0jBIGPMIGMoX+kfTB7
MQswCQYDVQQGEwJVUzERMA8GA1UECBMITmV3IFlvcmsxETAPBgNVBAcTCEJyb29r
bHluMSYwJAYDVQQKEx11Y3NwaS1zc2wgcmVzZWFyY2ggbGFib3JhdG9yeTEeMBwG
A1UEAxMVdWNzcGktc3NsIHJlc2VhcmNoIGNhggkA8YoWu/pPE+IwDQYJKoZIhvcN
AQEFBQADggEBAAnc30zWJjsMahGJFxz0jFZUlxyl2R9COiielqPTq2820ItAffHj
65CMic4XNZ6aAcj0vtXidVwEqspcWEzIxsvdVYR4QyzjaW+VLCf7ZCUrLipv8eBa
ufOqK60k2mQfe+IZBMqyPoUgn+OtA/MHR4+h0Z5eVQCyC91kjLsd9wXnbxyoGowj
dgAFFQYQlFyQA+I/spafkf7EjjNMpfWRQykHOIGUTc7liqDaZwijkSUueCjOcVJS
mHFNuLaSNUrjzRkiMYbe1sPo2s7KQP0HYroIHKQN9FMiW7Zfi7ciF5Zqt6w8+Hns
6eqz9qRPNqPGNgwIUH5TgaPKQ1pwRoXZpk8=
-----END CERTIFICATE-----
