Certificate:
    Data:
        Version: 3 (0x2)
        Serial Number:
            d3:4a:f4:ef:87:65:d7:72
        Signature Algorithm: sha1WithRSAEncryption
        Issuer: C=US, ST=New York, L=Brooklyn, O=ucspi-ssl research laboratory, CN=ucspi-ssl research ca
        Validity
            Not Before: Sep 27 19:03:34 2012 GMT
            Not After : Sep 25 19:03:34 2022 GMT
        Subject: C=US, ST=New York, L=Brooklyn, O=ucspi-ssl research laboratory, CN=localhost
        Subject Public Key Info:
            Public Key Algorithm: rsaEncryption
            RSA Public Key: (1024 bit)
                Modulus (1024 bit):
                    00:b0:ae:54:81:d5:0b:ea:7e:57:67:6a:77:65:ba:
                    57:61:56:cf:45:58:a3:d0:be:24:47:34:f9:40:b7:
                    f5:cf:6a:1c:4d:0c:a1:76:e0:a1:c6:8c:58:0c:29:
                    c3:6f:11:2e:c1:aa:62:ae:5f:01:5f:d5:aa:26:01:
                    64:12:e2:79:bb:0f:cd:50:66:41:ce:a6:11:03:6c:
                    fc:c3:23:b9:90:24:3e:40:50:20:a8:62:19:66:a8:
                    29:b0:c8:36:dd:5d:54:79:31:b3:8b:fd:67:18:56:
                    e2:09:5a:68:b6:5b:3c:b8:55:88:50:96:e0:b6:e6:
                    e7:39:fc:84:8b:a2:38:00:41
                Exponent: 65537 (0x10001)
        X509v3 extensions:
            X509v3 Basic Constraints: 
                CA:FALSE
            X509v3 Key Usage: 
                Digital Signature, Key Encipherment
            X509v3 Extended Key Usage: 
                TLS Web Client Authentication
            X509v3 Subject Alternative Name: 
                DNS:localhost, IP Address:127.0.0.1, IP Address:0:0:0:0:0:0:0:1
            X509v3 Authority Key Identifier: 
                DirName:/C=US/ST=New York/L=Brooklyn/O=ucspi-ssl research laboratory/CN=ucspi-ssl research ca
                serial:F1:8A:16:BB:FA:4F:13:E2

    Signature Algorithm: sha1WithRSAEncryption
        43:b7:13:ff:7e:80:eb:94:b4:7b:e9:fc:9b:76:4f:e9:fa:94:
        5b:93:b9:e0:2a:0c:85:97:cf:84:48:86:91:38:3c:b9:9d:1c:
        99:0c:46:e0:83:84:8c:01:79:47:08:4b:93:42:81:66:a9:97:
        a7:a9:2d:0d:46:94:7a:8d:09:56:31:cd:60:f3:55:af:06:f9:
        fb:aa:7f:30:70:f6:a6:71:95:27:a7:21:18:5e:c9:a5:ca:f6:
        11:86:a1:63:c4:19:27:77:51:79:92:19:2e:c2:2b:a0:4c:26:
        6c:15:b1:dc:f6:a0:fa:9f:32:22:e2:80:d5:b9:e2:90:4b:f5:
        bb:bf:e2:fd:e4:bc:e5:c1:57:64:42:db:76:ad:4b:45:40:25:
        5a:02:0c:a5:d4:bf:22:de:63:cb:ff:38:7a:cd:bd:30:95:ec:
        c2:65:61:4f:dd:bb:cd:03:6f:6e:95:15:f4:a0:ee:fb:38:1d:
        c3:31:c2:88:06:cc:56:79:65:23:6f:87:01:be:61:a8:fa:0f:
        b8:75:85:00:0a:75:37:49:21:c4:d7:93:78:d3:55:d9:8b:47:
        e6:45:9a:27:43:72:13:ff:03:11:25:4e:a3:49:fb:05:f0:2c:
        fc:dd:e5:29:7d:7a:f9:aa:61:41:9c:27:98:f4:c8:71:1e:42:
        32:a9:9f:5c
-----BEGIN CERTIFICATE-----
MIID4jCCAsqgAwIBAgIJANNK9O+HZddyMA0GCSqGSIb3DQEBBQUAMHsxCzAJBgNV
BAYTAlVTMREwDwYDVQQIEwhOZXcgWW9yazERMA8GA1UEBxMIQnJvb2tseW4xJjAk
BgNVBAoTHXVjc3BpLXNzbCByZXNlYXJjaCBsYWJvcmF0b3J5MR4wHAYDVQQDExV1
Y3NwaS1zc2wgcmVzZWFyY2ggY2EwHhcNMTIwOTI3MTkwMzM0WhcNMjIwOTI1MTkw
MzM0WjBvMQswCQYDVQQGEwJVUzERMA8GA1UECBMITmV3IFlvcmsxETAPBgNVBAcT
CEJyb29rbHluMSYwJAYDVQQKEx11Y3NwaS1zc2wgcmVzZWFyY2ggbGFib3JhdG9y
eTESMBAGA1UEAxMJbG9jYWxob3N0MIGfMA0GCSqGSIb3DQEBAQUAA4GNADCBiQKB
gQCwrlSB1QvqfldnandluldhVs9FWKPQviRHNPlAt/XPahxNDKF24KHGjFgMKcNv
ES7BqmKuXwFf1aomAWQS4nm7D81QZkHOphEDbPzDI7mQJD5AUCCoYhlmqCmwyDbd
XVR5MbOL/WcYVuIJWmi2Wzy4VYhQluC25uc5/ISLojgAQQIDAQABo4H4MIH1MAkG
A1UdEwQCMAAwCwYDVR0PBAQDAgWgMBMGA1UdJQQMMAoGCCsGAQUFBwMCMCwGA1Ud
EQQlMCOCCWxvY2FsaG9zdIcEfwAAAYcQAAAAAAAAAAAAAAAAAAAAATCBlwYDVR0j
BIGPMIGMoX+kfTB7MQswCQYDVQQGEwJVUzERMA8GA1UECBMITmV3IFlvcmsxETAP
BgNVBAcTCEJyb29rbHluMSYwJAYDVQQKEx11Y3NwaS1zc2wgcmVzZWFyY2ggbGFi
b3JhdG9yeTEeMBwGA1UEAxMVdWNzcGktc3NsIHJlc2VhcmNoIGNhggkA8YoWu/pP
E+IwDQYJKoZIhvcNAQEFBQADggEBAEO3E/9+gOuUtHvp/Jt2T+n6lFuTueAqDIWX
z4RIhpE4PLmdHJkMRuCDhIwBeUcIS5NCgWapl6epLQ1GlHqNCVYxzWDzVa8G+fuq
fzBw9qZxlSenIRheyaXK9hGGoWPEGSd3UXmSGS7CK6BMJmwVsdz2oPqfMiLigNW5
4pBL9bu/4v3kvOXBV2RC23atS0VAJVoCDKXUvyLeY8v/OHrNvTCV7MJlYU/du80D
b26VFfSg7vs4HcMxwogGzFZ5ZSNvhwG+Yaj6D7h1hQAKdTdJIcTXk3jTVdmLR+ZF
midDchP/AxElTqNJ+wXwLPzd5Sl9evmqYUGcJ5j0yHEeQjKpn1w=
-----END CERTIFICATE-----
