Certificate:
    Data:
        Version: 3 (0x2)
        Serial Number:
            f1:8a:16:bb:fa:4f:13:e2
        Signature Algorithm: sha1WithRSAEncryption
        Issuer: C=US, ST=New York, L=Brooklyn, O=ucspi-ssl research laboratory, CN=ucspi-ssl research ca
        Validity
            Not Before: Sep 27 19:02:47 2012 GMT
            Not After : Sep 25 19:02:47 2022 GMT
        Subject: C=US, ST=New York, L=Brooklyn, O=ucspi-ssl research laboratory, CN=ucspi-ssl research ca
        Subject Public Key Info:
            Public Key Algorithm: rsaEncryption
            RSA Public Key: (2048 bit)
                Modulus (2048 bit):
                    00:d7:8d:83:35:93:a0:68:26:ef:9b:26:51:fc:cf:
                    7b:89:b0:d4:ff:c8:c8:8c:09:4c:64:e9:cd:2f:e8:
                    15:76:bc:ad:fe:56:bc:b9:31:1e:4d:29:cf:db:5f:
                    8e:cf:d2:62:99:7b:9e:e6:ae:af:35:0c:82:97:82:
                    20:b2:b2:bb:11:da:54:41:64:d9:4e:af:a7:f9:a9:
                    3e:d6:87:16:7d:a6:3b:42:60:23:a1:c7:d1:04:db:
                    59:e0:61:df:00:54:80:39:d2:b0:dc:e6:38:b0:b3:
                    b7:d5:da:46:47:6c:14:10:71:d9:81:b4:69:45:5b:
                    c9:ba:40:9c:e5:a7:9a:26:f3:08:00:6c:30:19:35:
                    a5:75:99:1f:14:a9:ab:62:f1:92:4c:ce:56:b7:af:
                    11:27:de:66:00:e1:b9:df:2c:b8:bf:27:d2:bc:39:
                    5b:74:87:d8:95:16:23:c3:ea:43:36:10:d8:3f:6c:
                    6d:d1:86:61:29:e7:25:d2:a8:d9:1e:0f:40:19:f9:
                    ee:e5:f4:e7:4f:76:c4:ac:57:ff:1c:07:14:99:f4:
                    81:b9:83:ba:33:49:38:31:1d:8a:4c:d9:f6:6b:63:
                    3a:02:d1:c7:51:4b:f8:03:45:d6:2b:56:ce:d2:84:
                    ca:a8:36:ae:82:9f:2b:08:3f:95:06:3d:8e:1d:b1:
                    74:85
                Exponent: 65537 (0x10001)
        X509v3 extensions:
            X509v3 Basic Constraints: critical
                CA:TRUE, pathlen:5
            X509v3 Key Usage: 
                Certificate Sign, CRL Sign
            X509v3 Subject Key Identifier: 
                98:E3:30:45:B9:E2:40:14:AE:98:03:29:5E:22:7D:11:F7:61:B9:FB
            X509v3 Authority Key Identifier: 
                keyid:98:E3:30:45:B9:E2:40:14:AE:98:03:29:5E:22:7D:11:F7:61:B9:FB
                DirName:/C=US/ST=New York/L=Brooklyn/O=ucspi-ssl research laboratory/CN=ucspi-ssl research ca
                serial:F1:8A:16:BB:FA:4F:13:E2

    Signature Algorithm: sha1WithRSAEncryption
        0a:c2:e7:29:b1:78:19:a7:0e:ba:ae:a2:02:8d:52:04:bb:e3:
        e2:9e:ab:e6:3e:c0:73:fc:d6:69:08:92:e3:ee:20:79:5c:f5:
        05:03:6f:0f:aa:05:74:55:29:ee:4a:e3:e9:d1:1a:17:9d:7d:
        31:5e:50:71:0b:19:a7:13:37:be:dd:4c:db:ae:f8:8c:cb:a8:
        9d:a7:49:e4:08:75:b0:90:de:f3:12:c1:a3:15:8f:27:0b:9b:
        e3:4f:ad:70:af:a2:8d:8f:0c:a0:a7:e6:f3:e3:44:49:f6:6b:
        db:3e:ac:0c:e9:35:36:11:2b:2e:be:84:a9:f8:9c:2e:9e:72:
        18:2a:84:6b:2d:11:4e:10:bb:a0:bd:51:3f:4e:01:6f:6f:91:
        49:36:f0:23:15:54:ef:1b:78:7f:be:c0:c7:40:37:a4:49:f6:
        9a:23:cf:9a:79:86:54:e2:6f:db:a2:be:7e:15:c5:fe:fa:b0:
        b5:30:69:d4:0c:da:0e:90:55:63:f5:67:f9:76:a1:23:fc:bd:
        fe:cf:12:85:05:98:1b:11:82:5f:46:d6:e5:32:d3:70:54:fb:
        82:46:f9:c3:23:4a:6d:a8:01:7f:97:be:61:7f:2d:1e:d9:82:
        52:f9:64:4c:35:2f:c8:0e:4d:8a:1e:ab:11:27:23:d0:cf:4d:
        13:12:aa:eb
-----BEGIN CERTIFICATE-----
MIIEbTCCA1WgAwIBAgIJAPGKFrv6TxPiMA0GCSqGSIb3DQEBBQUAMHsxCzAJBgNV
BAYTAlVTMREwDwYDVQQIEwhOZXcgWW9yazERMA8GA1UEBxMIQnJvb2tseW4xJjAk
BgNVBAoTHXVjc3BpLXNzbCByZXNlYXJjaCBsYWJvcmF0b3J5MR4wHAYDVQQDExV1
Y3NwaS1zc2wgcmVzZWFyY2ggY2EwHhcNMTIwOTI3MTkwMjQ3WhcNMjIwOTI1MTkw
MjQ3WjB7MQswCQYDVQQGEwJVUzERMA8GA1UECBMITmV3IFlvcmsxETAPBgNVBAcT
CEJyb29rbHluMSYwJAYDVQQKEx11Y3NwaS1zc2wgcmVzZWFyY2ggbGFib3JhdG9y
eTEeMBwGA1UEAxMVdWNzcGktc3NsIHJlc2VhcmNoIGNhMIIBIjANBgkqhkiG9w0B
AQEFAAOCAQ8AMIIBCgKCAQEA142DNZOgaCbvmyZR/M97ibDU/8jIjAlMZOnNL+gV
dryt/la8uTEeTSnP21+Oz9JimXue5q6vNQyCl4IgsrK7EdpUQWTZTq+n+ak+1ocW
faY7QmAjocfRBNtZ4GHfAFSAOdKw3OY4sLO31dpGR2wUEHHZgbRpRVvJukCc5aea
JvMIAGwwGTWldZkfFKmrYvGSTM5Wt68RJ95mAOG53yy4vyfSvDlbdIfYlRYjw+pD
NhDYP2xt0YZhKecl0qjZHg9AGfnu5fTnT3bErFf/HAcUmfSBuYO6M0k4MR2KTNn2
a2M6AtHHUUv4A0XWK1bO0oTKqDaugp8rCD+VBj2OHbF0hQIDAQABo4HzMIHwMBIG
A1UdEwEB/wQIMAYBAf8CAQUwCwYDVR0PBAQDAgEGMB0GA1UdDgQWBBSY4zBFueJA
FK6YAyleIn0R92G5+zCBrQYDVR0jBIGlMIGigBSY4zBFueJAFK6YAyleIn0R92G5
+6F/pH0wezELMAkGA1UEBhMCVVMxETAPBgNVBAgTCE5ldyBZb3JrMREwDwYDVQQH
EwhCcm9va2x5bjEmMCQGA1UEChMddWNzcGktc3NsIHJlc2VhcmNoIGxhYm9yYXRv
cnkxHjAcBgNVBAMTFXVjc3BpLXNzbCByZXNlYXJjaCBjYYIJAPGKFrv6TxPiMA0G
CSqGSIb3DQEBBQUAA4IBAQAKwucpsXgZpw66rqICjVIEu+PinqvmPsBz/NZpCJLj
7iB5XPUFA28PqgV0VSnuSuPp0RoXnX0xXlBxCxmnEze+3UzbrviMy6idp0nkCHWw
kN7zEsGjFY8nC5vjT61wr6KNjwygp+bz40RJ9mvbPqwM6TU2ESsuvoSp+JwunnIY
KoRrLRFOELugvVE/TgFvb5FJNvAjFVTvG3h/vsDHQDekSfaaI8+aeYZU4m/bor5+
FcX++rC1MGnUDNoOkFVj9Wf5dqEj/L3+zxKFBZgbEYJfRtblMtNwVPuCRvnDI0pt
qAF/l75hfy0e2YJS+WRMNS/IDk2KHqsRJyPQz00TEqrr
-----END CERTIFICATE-----
